target datalayout = "e-m:e-p270:32:32-p271:32:32-p272:64:64-i64:64-i128:128-f80:128-n8:16:32:64-S128"
target triple = "x86_64-pc-linux-gnu"

@.str.8 = private unnamed_addr constant [1 x i8] zeroinitializer, align 1
@git_gettext_enabled = external global i32, align 4
@stderr = external global ptr, align 8
@.str.176 = private unnamed_addr constant [15 x i8] c"repair: %s: %s\00", align 1
@.str.177 = private unnamed_addr constant [14 x i8] c"error: %s: %s\00", align 1

; Function Attrs: inlinehint nounwind uwtable
define internal ptr @_(ptr noundef %0) #3 {
  %2 = alloca ptr, align 8
  %3 = alloca ptr, align 8
  store ptr %0, ptr %3, align 8, !tbaa !11
  %4 = load ptr, ptr %3, align 8, !tbaa !11
  %5 = load i8, ptr %4, align 1, !tbaa !67
  %6 = icmp ne i8 %5, 0
  br i1 %6, label %8, label %7

7:                                                ; preds = %1
  store ptr @.str.8, ptr %2, align 8
  br label %16

8:                                                ; preds = %1
  %9 = load i32, ptr @git_gettext_enabled, align 4, !tbaa !4
  %10 = icmp ne i32 %9, 0
  br i1 %10, label %13, label %11

11:                                               ; preds = %8
  %12 = load ptr, ptr %3, align 8, !tbaa !11
  store ptr %12, ptr %2, align 8
  br label %16

13:                                               ; preds = %8
  %14 = load ptr, ptr %3, align 8, !tbaa !11
  %15 = call ptr @dcgettext(ptr noundef null, ptr noundef %14, i32 noundef 5) #11
  store ptr %15, ptr %2, align 8
  br label %16

16:                                               ; preds = %13, %11, %7
  %17 = load ptr, ptr %2, align 8
  ret ptr %17
}

; Function Attrs: nounwind uwtable
define internal void @report_repair(i32 noundef %0, ptr noundef %1, ptr noundef %2, ptr noundef %3) #0 {
  %5 = alloca i32, align 4
  %6 = alloca ptr, align 8
  %7 = alloca ptr, align 8
  %8 = alloca ptr, align 8
  %9 = alloca ptr, align 8
  store i32 %0, ptr %5, align 4, !tbaa !4
  store ptr %1, ptr %6, align 8, !tbaa !11
  store ptr %2, ptr %7, align 8, !tbaa !11
  store ptr %3, ptr %8, align 8, !tbaa !15
  %10 = load i32, ptr %5, align 4, !tbaa !4
  %11 = icmp ne i32 %10, 0
  br i1 %11, label %18, label %12

12:                                               ; preds = %4
  %13 = load ptr, ptr @stderr, align 8, !tbaa !81
  %14 = call ptr @_(ptr noundef @.str.176)
  %15 = load ptr, ptr %7, align 8, !tbaa !11
  %16 = load ptr, ptr %6, align 8, !tbaa !11
  %17 = call i32 (ptr, ptr, ...) @fprintf_ln(ptr noundef %13, ptr noundef %14, ptr noundef %15, ptr noundef %16)
  br label %26

18:                                               ; preds = %4
  call void @llvm.lifetime.start.p0(i64 8, ptr %9) #11
  %19 = load ptr, ptr %8, align 8, !tbaa !15
  store ptr %19, ptr %9, align 8, !tbaa !75
  %20 = load ptr, ptr @stderr, align 8, !tbaa !81
  %21 = call ptr @_(ptr noundef @.str.177)
  %22 = load ptr, ptr %7, align 8, !tbaa !11
  %23 = load ptr, ptr %6, align 8, !tbaa !11
  %24 = call i32 (ptr, ptr, ...) @fprintf_ln(ptr noundef %20, ptr noundef %21, ptr noundef %22, ptr noundef %23)
  %25 = load ptr, ptr %9, align 8, !tbaa !75
  store i32 1, ptr %25, align 4, !tbaa !4
  call void @llvm.lifetime.end.p0(i64 8, ptr %9) #11
  br label %26

26:                                               ; preds = %18, %12
  ret void
}