; Function Attrs: nounwind uwtable
define internal void @report_repair(i32 noundef %0, ptr noundef %1, ptr noundef %2, ptr noundef writeonly captures(none) %3) #0 {
  %.not = icmp eq i32 %0, 0
  %5 = load ptr, ptr @stderr, align 8, !tbaa !58
  %6 = load i32, ptr @git_gettext_enabled, align 4, !tbaa !38
  %.not4.i = icmp eq i32 %6, 0
  br i1 %.not, label %7, label %11

7:                                                ; preds = %4
  br i1 %.not4.i, label %_.exit, label %8

8:                                                ; preds = %7
  %9 = tail call ptr @dcgettext(ptr noundef null, ptr noundef nonnull @.str.176, i32 noundef 5) #18
  br label %_.exit

_.exit:                                           ; preds = %7, %8
  %.0.i = phi ptr [ %9, %8 ], [ @.str.176, %7 ]
  %10 = tail call i32 (ptr, ptr, ...) @fprintf_ln(ptr noundef %5, ptr noundef %.0.i, ptr noundef %2, ptr noundef %1) #18
  br label %15

11:                                               ; preds = %4
  br i1 %.not4.i, label %_.exit8, label %12

12:                                               ; preds = %11
  %13 = tail call ptr @dcgettext(ptr noundef null, ptr noundef nonnull @.str.177, i32 noundef 5) #18
  br label %_.exit8

_.exit8:                                          ; preds = %11, %12
  %.0.i7 = phi ptr [ %13, %12 ], [ @.str.177, %11 ]
  %14 = tail call i32 (ptr, ptr, ...) @fprintf_ln(ptr noundef %5, ptr noundef %.0.i7, ptr noundef %2, ptr noundef %1) #18
  store i32 1, ptr %3, align 4, !tbaa !38
  br label %15

15:                                               ; preds = %_.exit8, %_.exit
  ret void
}